(dp0
(I5
I6
I2
tp1
(dp2
S'min_msr_size'
p3
I1
sS'stats'
p4
(dp5
S'checks_insufficient_time'
p6
F0.009510999999999825
sS'shrinks'
p7
I2
sS'checks_insufficient'
p8
I2
sS'checks_sufficient'
p9
I8
sS'timeout'
p10
I00
sS'checks_sufficient_time'
p11
F0.038076999999997696
sS'shrinks_time'
p12
F0.04783899999999974
sS'checks'
p13
I10
ssS'milp_comp_time'
p14
F0.0026279999999996306
sS'optimal_cost'
p15
F3.0
sS'msr_time'
p16
F0.08882299999999965
sS'constraint_count'
p17
I11
ss(I7
I12
I2
tp18
(dp19
g3
I1
sg4
(dp20
g6
F0.02854700000034427
sg7
I2
sg8
I6
sg9
I19
sg10
I00
sg11
F0.11299599999983911
sg12
F0.16097799999988638
sg13
I25
ssg14
F0.004202999999961321
sg15
F13.0
sg16
F0.27118300000006457
sg17
I28
ss(I7
I21
I2
tp21
(dp22
g3
I1
sg4
(dp23
g6
F0.11920800000007148
sg7
I3
sg8
I18
sg9
I28
sg10
I00
sg11
F0.24956600000132312
sg12
F0.3771309999992809
sg13
I46
ssg14
F0.004491000000598433
sg15
F11.0
sg16
F1.252664999999979
sg17
I49
ss(I7
I21
I1
tp24
(dp25
g3
I6
sg4
(dp26
g6
F72.2753639999687
sg7
I2
sg8
I14286
sg9
I28
sg10
I01
sg11
F0.1722650000001522
sg12
F0.24094800000057148
sg13
I14314
ssg14
F0.006836999999904947
sg15
F29.0
sg16
F2000.1358889999997
sg17
I33
ss(I3
I9
I1
tp27
(dp28
g3
I1
sg4
(dp29
g6
F0.005535999999999763
sg7
I1
sg8
I1
sg9
I8
sg10
I00
sg11
F0.03560400000000019
sg12
F0.04446899999999987
sg13
I9
ssg14
F0.005435000000000301
sg15
F3.0
sg16
F0.07679800000000014
sg17
I8
ss(I7
I15
I1
tp30
(dp31
g3
I4
sg4
(dp32
g6
F5.503195999996478
sg7
I2
sg8
I1342
sg9
I20
sg10
I00
sg11
F0.10288599999989856
sg12
F0.14216899999996713
sg13
I1362
ssg14
F0.004601000000093336
sg15
F18.0
sg16
F31.779077000000143
sg17
I23
ss(I7
I18
I2
tp33
(dp34
g3
I1
sg4
(dp35
g6
F22.897440999995524
sg7
I2
sg8
I3570
sg9
I28
sg10
I00
sg11
F0.20784500000036132
sg12
F0.30534799999986717
sg13
I3598
ssg14
F0.004101999999875261
sg15
F6.0
sg16
F306.02092300000004
sg17
I42
ss(I5
I21
I1
tp36
(dp37
g3
I5
sg4
(dp38
g6
F90.05654500000048
sg7
I1
sg8
I17236
sg9
I23
sg10
I00
sg11
F0.13637000000000654
sg12
F0.18821200000000005
sg13
I17259
ssg14
F0.006499999999959982
sg15
F21.0
sg16
F1801.16337
sg17
I27
ss(I5
I18
I1
tp39
(dp40
g3
I4
sg4
(dp41
g6
F8.165415999999885
sg7
I1
sg8
I1741
sg9
I20
sg10
I00
sg11
F0.11985799999999891
sg12
F0.1573379999999993
sg13
I1761
ssg14
F0.004778000000001725
sg15
F16.0
sg16
F43.922667999999994
sg17
I23
ss(I7
I15
I2
tp42
(dp43
g3
I1
sg4
(dp44
g6
F0.03800900000010188
sg7
I2
sg8
I7
sg9
I21
sg10
I00
sg11
F0.14411600000016733
sg12
F0.20746599999984028
sg13
I28
ssg14
F0.004680999999891355
sg15
F1.0
sg16
F0.3510639999999512
sg17
I34
ss(I7
I18
I1
tp45
(dp46
g3
I5
sg4
(dp47
g6
F70.84449700000073
sg7
I2
sg8
I14671
sg9
I24
sg10
I00
sg11
F0.13768800000025294
sg12
F0.18961300000000847
sg13
I14695
ssg14
F0.007680000000164
sg15
F25.0
sg16
F1272.5517869999999
sg17
I28
ss(I5
I18
I2
tp48
(dp49
g3
I1
sg4
(dp50
g6
F0.042580999999998426
sg7
I2
sg8
I7
sg9
I23
sg10
I00
sg11
F0.1700310000000087
sg12
F0.24047200000000402
sg13
I30
ssg14
F0.004011000000005538
sg15
F6.0
sg16
F0.3887590000000003
sg17
I35
ss(I5
I21
I2
tp51
(dp52
g3
I1
sg4
(dp53
g6
F0.14489300000013827
sg7
I3
sg8
I21
sg9
I27
sg10
I00
sg11
F0.22578800000042065
sg12
F0.32700900000008915
sg13
I48
ssg14
F0.004151999999976397
sg15
F11.0
sg16
F1.47262499999988
sg17
I41
ss(I3
I9
I2
tp54
(dp55
g3
I1
sg4
(dp56
g6
F0.01661899999999994
sg7
I2
sg8
I3
sg9
I8
sg10
I00
sg11
F0.04411699999999996
sg12
F0.05426099999999989
sg13
I11
ssg14
F0.003686000000000078
sg15
F8.0
sg16
F0.12679799999999997
sg17
I12
ss(I3
I18
I2
tp57
(dp58
g3
I1
sg4
(dp59
g6
F0.04068300000000047
sg7
I2
sg8
I6
sg9
I15
sg10
I00
sg11
F0.1498500000000007
sg12
F0.20182700000000064
sg13
I21
ssg14
F0.004286000000000456
sg15
F6.0
sg16
F0.30524600000000035
sg17
I24
ss(I7
I6
I1
tp60
(dp61
g3
I1
sg4
(dp62
g6
F0.005834999999933643
sg7
I2
sg8
I2
sg9
I9
sg10
I00
sg11
F0.0334199999995235
sg12
F0.03969700000016019
sg13
I11
ssg14
F0.0037359999998898274
sg15
F3.0
sg16
F0.07733600000005936
sg17
I9
ss(I3
I12
I1
tp63
(dp64
g3
I2
sg4
(dp65
g6
F0.04125599999999974
sg7
I1
sg8
I11
sg9
I10
sg10
I00
sg11
F0.05003000000000091
sg12
F0.06341000000000019
sg13
I21
ssg14
F0.004329000000000249
sg15
F6.0
sg16
F0.17810799999999993
sg17
I11
ss(I3
I6
I2
tp66
(dp67
g3
I1
sg4
(dp68
g6
F0.023176000000000085
sg7
I2
sg8
I5
sg9
I6
sg10
I00
sg11
F0.02692799999999984
sg12
F0.03189799999999998
sg13
I11
ssg14
F0.003875000000000073
sg15
F3.0
sg16
F0.10967299999999991
sg17
I9
ss(I3
I12
I2
tp69
(dp70
g3
I1
sg4
(dp71
g6
F0.12715000000000032
sg7
I2
sg8
I21
sg9
I10
sg10
I00
sg11
F0.06176199999999987
sg12
F0.08622400000000008
sg13
I31
ssg14
F0.005418999999999841
sg15
F13.0
sg16
F0.4887729999999997
sg17
I17
ss(I3
I18
I1
tp72
(dp73
g3
I3
sg4
(dp74
g6
F0.4974339999999984
sg7
I1
sg8
I93
sg9
I14
sg10
I00
sg11
F0.1216339999999998
sg12
F0.160501
sg13
I107
ssg14
F0.0052790000000007
sg15
F9.0
sg16
F1.744431
sg17
I16
ss(I7
I9
I2
tp75
(dp76
g3
I1
sg4
(dp77
g6
F0.21513399999935245
sg7
I2
sg8
I50
sg9
I11
sg10
I00
sg11
F0.05804499999953805
sg12
F0.08515800000009222
sg13
I61
ssg14
F0.0036859999997886916
sg15
F8.0
sg16
F0.9188779999999497
sg17
I19
ss(I7
I12
I1
tp78
(dp79
g3
I3
sg4
(dp80
g6
F0.2913809999990917
sg7
I2
sg8
I79
sg9
I17
sg10
I00
sg11
F0.08214699999984987
sg12
F0.1156860000000961
sg13
I96
ssg14
F0.004455000000007203
sg15
F11.0
sg16
F1.3979769999998553
sg17
I19
ss(I7
I9
I1
tp81
(dp82
g3
I1
sg4
(dp83
g6
F0.012397999999848253
sg7
I2
sg8
I4
sg9
I13
sg10
I00
sg11
F0.05396599999994578
sg12
F0.06521500000008018
sg13
I17
ssg14
F0.0037919999999758147
sg15
F3.0
sg16
F0.12799500000005537
sg17
I13
ss(I3
I6
I1
tp84
(dp85
g3
I1
sg4
(dp86
g6
F0.0029999999999998916
sg7
I1
sg8
I1
sg9
I6
sg10
I00
sg11
F0.021761000000000585
sg12
F0.0253270000000001
sg13
I7
ssg14
F0.005117999999999956
sg15
F3.0
sg16
F0.060667000000000026
sg17
I6
ss(I3
I15
I1
tp87
(dp88
g3
I2
sg4
(dp89
g6
F0.08009699999999853
sg7
I1
sg8
I13
sg9
I12
sg10
I00
sg11
F0.08706899999999917
sg12
F0.11112499999999992
sg13
I25
ssg14
F0.0057389999999997166
sg15
F6.0
sg16
F0.3588370000000003
sg17
I13
ss(I5
I9
I1
tp90
(dp91
g3
I1
sg4
(dp92
g6
F0.004556000000000893
sg7
I1
sg8
I1
sg9
I11
sg10
I00
sg11
F0.05326999999999771
sg12
F0.06311400000000056
sg13
I12
ssg14
F0.0042559999999998155
sg15
F3.0
sg16
F0.09314099999999925
sg17
I11
ss(I3
I21
I2
tp93
(dp94
g3
I1
sg4
(dp95
g6
F0.03832899999999917
sg7
I2
sg8
I5
sg9
I18
sg10
I00
sg11
F0.14981800000000156
sg12
F0.20058400000000098
sg13
I23
ssg14
F0.0045890000000010644
sg15
F11.0
sg16
F0.32430999999999877
sg17
I28
ss(I5
I12
I2
tp96
(dp97
g3
I1
sg4
(dp98
g6
F0.035048999999999
sg7
I2
sg8
I6
sg9
I16
sg10
I00
sg11
F0.1004649999999998
sg12
F0.14793200000000084
sg13
I22
ssg14
F0.004409000000000773
sg15
F13.0
sg16
F0.24674399999999963
sg17
I24
ss(I3
I15
I2
tp99
(dp100
g3
I1
sg4
(dp101
g6
F0.0296350000000003
sg7
I2
sg8
I3
sg9
I12
sg10
I00
sg11
F0.12904500000000008
sg12
F0.17070099999999977
sg13
I15
ssg14
F0.00648599999999977
sg15
F1.0
sg16
F0.2828910000000002
sg17
I20
ss(I3
I21
I1
tp102
(dp103
g3
I3
sg4
(dp104
g6
F0.665134000000001
sg7
I1
sg8
I126
sg9
I16
sg10
I00
sg11
F0.09612400000000143
sg12
F0.12220000000000031
sg13
I142
ssg14
F0.004542999999999964
sg15
F9.0
sg16
F2.479735999999999
sg17
I18
ss(I5
I15
I2
tp105
(dp106
g3
I1
sg4
(dp107
g6
F0.042518000000001166
sg7
I2
sg8
I6
sg9
I18
sg10
I00
sg11
F0.15255500000000133
sg12
F0.21732599999999813
sg13
I24
ssg14
F0.004898999999999987
sg15
F1.0
sg16
F0.3410270000000004
sg17
I28
ss(I5
I6
I1
tp108
(dp109
g3
I1
sg4
(dp110
g6
F0.0037050000000000693
sg7
I1
sg8
I1
sg9
I8
sg10
I00
sg11
F0.031880000000002795
sg12
F0.0380319999999994
sg13
I9
ssg14
F0.0038809999999998013
sg15
F3.0
sg16
F0.06573600000000113
sg17
I8
ss(I5
I9
I2
tp111
(dp112
g3
I1
sg4
(dp113
g6
F0.054651000000003336
sg7
I2
sg8
I11
sg9
I10
sg10
I00
sg11
F0.051172000000001105
sg12
F0.06664899999999818
sg13
I21
ssg14
F0.003939000000000803
sg15
F8.0
sg16
F0.25827199999999984
sg17
I17
ss(I5
I15
I1
tp114
(dp115
g3
I3
sg4
(dp116
g6
F0.7594970000000085
sg7
I1
sg8
I168
sg9
I17
sg10
I00
sg11
F0.09108599999999711
sg12
F0.11792099999999905
sg13
I185
ssg14
F0.004563999999998458
sg15
F12.0
sg16
F3.207325000000001
sg17
I19
ss(I7
I6
I2
tp117
(dp118
g3
I1
sg4
(dp119
g6
F0.01096800000004805
sg7
I2
sg8
I3
sg9
I8
sg10
I00
sg11
F0.03427399999964109
sg12
F0.046344000000317465
sg13
I11
ssg14
F0.002529999999978827
sg15
F3.0
sg16
F0.08725900000013098
sg17
I12
ss(I5
I12
I1
tp120
(dp121
g3
I3
sg4
(dp122
g6
F0.5013860000000125
sg7
I1
sg8
I117
sg9
I14
sg10
I00
sg11
F0.07494800000000268
sg12
F0.10084600000000066
sg13
I131
ssg14
F0.004271000000001024
sg15
F12.0
sg16
F1.8172099999999993
sg17
I16
ss.